; Function Attrs: mustprogress nofree norecurse nosync nounwind willreturn memory(readwrite, inaccessiblemem: none) uwtable
define hidden void @_ZN10ODDLParser5Value8setFloatEf(ptr noundef nonnull readonly align 8 captures(none) dereferenceable(32) %0, float noundef %1) local_unnamed_addr #10 align 2 {
  %3 = alloca float, align 4
  store float %1, ptr %3, align 4
  %4 = getelementptr inbounds nuw i8, ptr %0, i64 16
  %5 = load ptr, ptr %4, align 8
  %6 = getelementptr inbounds nuw i8, ptr %0, i64 8
  %7 = load i64, ptr %6, align 8
  call void @llvm.memcpy.p0.p0.i64(ptr align 1 %5, ptr nonnull align 4 %3, i64 %7, i1 false)
  ret void
}